; Function Attrs: nounwind uwtable
define internal range(i32 -2147483648, 1) i32 @sol_read_packet(ptr noundef readonly captures(none) %0, ptr noundef %1) #1 {
  %3 = getelementptr inbounds nuw i8, ptr %0, i64 32
  %4 = load ptr, ptr %3, align 8, !tbaa !12
  %5 = tail call i32 @avio_feof(ptr noundef %4) #3
  %.not = icmp eq i32 %5, 0
  br i1 %.not, label %6, label %15

6:                                                ; preds = %2
  %7 = load ptr, ptr %3, align 8, !tbaa !12
  %8 = tail call i32 @av_get_packet(ptr noundef %7, ptr noundef %1, i32 noundef 4096) #3
  %9 = icmp slt i32 %8, 0
  br i1 %9, label %15, label %10

10:                                               ; preds = %6
  %11 = getelementptr inbounds nuw i8, ptr %1, i64 40
  %12 = load i32, ptr %11, align 8, !tbaa !40
  %13 = and i32 %12, -3
  store i32 %13, ptr %11, align 8, !tbaa !40
  %14 = getelementptr inbounds nuw i8, ptr %1, i64 36
  store i32 0, ptr %14, align 4, !tbaa !41
  br label %15

15:                                               ; preds = %6, %2, %10
  %.0 = phi i32 [ 0, %10 ], [ -541478725, %2 ], [ %8, %6 ]
  ret i32 %.0
}